target datalayout = "e-m:e-p270:32:32-p271:32:32-p272:64:64-i64:64-i128:128-f80:128-n8:16:32:64-S128"
target triple = "x86_64-pc-linux-gnu"

%struct.Abc_Ntk_t_ = type { i32, i32, ptr, ptr, ptr, ptr, ptr, ptr, ptr, ptr, ptr, ptr, ptr, [11 x i32], i32, i32, i32, i32, ptr, i32, ptr, ptr, i32, i32, i32, double, i32, %struct.Vec_Int_t_, ptr, ptr, ptr, ptr, ptr, float, i32, ptr, ptr, ptr, ptr, ptr, ptr, ptr, ptr, ptr, ptr, ptr, ptr, ptr, ptr, ptr, ptr, ptr, ptr, ptr, ptr, ptr, ptr }
%struct.Vec_Int_t_ = type { i32, i32, ptr }

@.str = private unnamed_addr constant [9 x i8] c"%s=%s%s\0A\00", align 1
@.str.1 = private unnamed_addr constant [2 x i8] c"~\00", align 1
@.str.2 = private unnamed_addr constant [1 x i8] zeroinitializer, align 1

; Function Attrs: inlinehint nounwind uwtable
define internal i32 @Vec_IntEntry(ptr noundef %0, i32 noundef %1) #2 {
  %3 = alloca ptr, align 8
  %4 = alloca i32, align 4
  store ptr %0, ptr %3, align 8, !tbaa !12
  store i32 %1, ptr %4, align 4, !tbaa !14
  %5 = load ptr, ptr %3, align 8, !tbaa !12
  %6 = getelementptr inbounds nuw %struct.Vec_Int_t_, ptr %5, i32 0, i32 2
  %7 = load ptr, ptr %6, align 8, !tbaa !42
  %8 = load i32, ptr %4, align 4, !tbaa !14
  %9 = sext i32 %8 to i64
  %10 = getelementptr inbounds i32, ptr %7, i64 %9
  %11 = load i32, ptr %10, align 4, !tbaa !14
  ret i32 %11
}

; Function Attrs: nounwind uwtable
define ptr @Abc_NtkTestScorrGetName(ptr noundef %0, ptr noundef %1, i32 noundef %2) #0 {
  %4 = alloca ptr, align 8
  %5 = alloca ptr, align 8
  %6 = alloca ptr, align 8
  %7 = alloca i32, align 4
  store ptr %0, ptr %5, align 8, !tbaa !3
  store ptr %1, ptr %6, align 8, !tbaa !12
  store i32 %2, ptr %7, align 4, !tbaa !14
  %8 = load ptr, ptr %6, align 8, !tbaa !12
  %9 = load i32, ptr %7, align 4, !tbaa !14
  %10 = call i32 @Vec_IntEntry(ptr noundef %8, i32 noundef %9)
  %11 = icmp eq i32 %10, -1
  br i1 %11, label %12, label %13

12:                                               ; preds = %3
  store ptr null, ptr %4, align 8
  br label %21

13:                                               ; preds = %3
  %14 = load ptr, ptr %5, align 8, !tbaa !3
  %15 = getelementptr inbounds nuw %struct.Abc_Ntk_t_, ptr %14, i32 0, i32 4
  %16 = load ptr, ptr %15, align 8, !tbaa !75
  %17 = load ptr, ptr %6, align 8, !tbaa !12
  %18 = load i32, ptr %7, align 4, !tbaa !14
  %19 = call i32 @Vec_IntEntry(ptr noundef %17, i32 noundef %18)
  %20 = call ptr @Nm_ManFindNameById(ptr noundef %16, i32 noundef %19)
  store ptr %20, ptr %4, align 8
  br label %21

21:                                               ; preds = %13, %12
  %22 = load ptr, ptr %4, align 8
  ret ptr %22
}

; Function Attrs: nounwind uwtable
define i32 @Abc_NtkTestScorrWriteEquivPair(ptr noundef %0, ptr noundef %1, i32 noundef %2, i32 noundef %3, ptr noundef %4, i32 noundef %5) #0 {
  %7 = alloca i32, align 4
  %8 = alloca ptr, align 8
  %9 = alloca ptr, align 8
  %10 = alloca i32, align 4
  %11 = alloca i32, align 4
  %12 = alloca ptr, align 8
  %13 = alloca i32, align 4
  %14 = alloca ptr, align 8
  %15 = alloca ptr, align 8
  %16 = alloca i32, align 4
  store ptr %0, ptr %8, align 8, !tbaa !3
  store ptr %1, ptr %9, align 8, !tbaa !12
  store i32 %2, ptr %10, align 4, !tbaa !14
  store i32 %3, ptr %11, align 4, !tbaa !14
  store ptr %4, ptr %12, align 8, !tbaa !76
  store i32 %5, ptr %13, align 4, !tbaa !14
  call void @llvm.lifetime.start.p0(i64 8, ptr %14) #9
  %17 = load ptr, ptr %8, align 8, !tbaa !3
  %18 = load ptr, ptr %9, align 8, !tbaa !12
  %19 = load i32, ptr %10, align 4, !tbaa !14
  %20 = call ptr @Abc_NtkTestScorrGetName(ptr noundef %17, ptr noundef %18, i32 noundef %19)
  store ptr %20, ptr %14, align 8, !tbaa !78
  call void @llvm.lifetime.start.p0(i64 8, ptr %15) #9
  %21 = load ptr, ptr %8, align 8, !tbaa !3
  %22 = load ptr, ptr %9, align 8, !tbaa !12
  %23 = load i32, ptr %11, align 4, !tbaa !14
  %24 = call ptr @Abc_NtkTestScorrGetName(ptr noundef %21, ptr noundef %22, i32 noundef %23)
  store ptr %24, ptr %15, align 8, !tbaa !78
  %25 = load ptr, ptr %14, align 8, !tbaa !78
  %26 = icmp eq ptr %25, null
  br i1 %26, label %30, label %27

27:                                               ; preds = %6
  %28 = load ptr, ptr %15, align 8, !tbaa !78
  %29 = icmp eq ptr %28, null
  br i1 %29, label %30, label %31

30:                                               ; preds = %27, %6
  store i32 0, ptr %7, align 4
  store i32 1, ptr %16, align 4
  br label %39

31:                                               ; preds = %27
  %32 = load ptr, ptr %12, align 8, !tbaa !76
  %33 = load ptr, ptr %14, align 8, !tbaa !78
  %34 = load i32, ptr %13, align 4, !tbaa !14
  %35 = icmp ne i32 %34, 0
  %36 = select i1 %35, ptr @.str.1, ptr @.str.2
  %37 = load ptr, ptr %15, align 8, !tbaa !78
  %38 = call i32 (ptr, ptr, ...) @fprintf(ptr noundef %32, ptr noundef @.str, ptr noundef %33, ptr noundef %36, ptr noundef %37) #9
  store i32 1, ptr %7, align 4
  store i32 1, ptr %16, align 4
  br label %39

39:                                               ; preds = %31, %30
  call void @llvm.lifetime.end.p0(i64 8, ptr %15) #9
  call void @llvm.lifetime.end.p0(i64 8, ptr %14) #9
  %40 = load i32, ptr %7, align 4
  ret i32 %40
}