; Function Attrs: nounwind uwtable
define range(i32 0, 2) i32 @Abc_NtkTestScorrWriteEquivPair(ptr noundef readonly captures(none) %0, ptr noundef readonly captures(none) %1, i32 noundef %2, i32 noundef %3, ptr noundef captures(none) %4, i32 noundef %5) local_unnamed_addr #2 {
  %7 = getelementptr i8, ptr %1, i64 8
  %.val.i = load ptr, ptr %7, align 8, !tbaa !22
  %8 = sext i32 %2 to i64
  %9 = getelementptr inbounds i32, ptr %.val.i, i64 %8
  %10 = load i32, ptr %9, align 4, !tbaa !21
  %11 = icmp eq i32 %10, -1
  br i1 %11, label %Abc_NtkTestScorrGetName.exit, label %12

12:                                               ; preds = %6
  %13 = getelementptr inbounds nuw i8, ptr %0, i64 24
  %14 = load ptr, ptr %13, align 8, !tbaa !55
  %15 = tail call ptr @Nm_ManFindNameById(ptr noundef %14, i32 noundef %10) #11
  %.val.i15.pre = load ptr, ptr %7, align 8, !tbaa !22
  br label %Abc_NtkTestScorrGetName.exit

Abc_NtkTestScorrGetName.exit:                     ; preds = %6, %12
  %.val.i15 = phi ptr [ %.val.i15.pre, %12 ], [ %.val.i, %6 ]
  %.0.i = phi ptr [ %15, %12 ], [ null, %6 ]
  %16 = sext i32 %3 to i64
  %17 = getelementptr inbounds i32, ptr %.val.i15, i64 %16
  %18 = load i32, ptr %17, align 4, !tbaa !21
  %19 = icmp eq i32 %18, -1
  br i1 %19, label %Abc_NtkTestScorrGetName.exit17.thread, label %Abc_NtkTestScorrGetName.exit17

Abc_NtkTestScorrGetName.exit17:                   ; preds = %Abc_NtkTestScorrGetName.exit
  %20 = getelementptr inbounds nuw i8, ptr %0, i64 24
  %21 = load ptr, ptr %20, align 8, !tbaa !55
  %22 = tail call ptr @Nm_ManFindNameById(ptr noundef %21, i32 noundef %18) #11
  %23 = icmp eq ptr %.0.i, null
  %24 = icmp eq ptr %22, null
  %or.cond = select i1 %23, i1 true, i1 %24
  br i1 %or.cond, label %Abc_NtkTestScorrGetName.exit17.thread, label %25

25:                                               ; preds = %Abc_NtkTestScorrGetName.exit17
  %.not = icmp eq i32 %5, 0
  %26 = select i1 %.not, ptr @.str.2, ptr @.str.1
  %27 = tail call i32 (ptr, ptr, ...) @fprintf(ptr noundef %4, ptr noundef nonnull @.str, ptr noundef nonnull %.0.i, ptr noundef nonnull %26, ptr noundef nonnull %22) #11
  br label %Abc_NtkTestScorrGetName.exit17.thread

Abc_NtkTestScorrGetName.exit17.thread:            ; preds = %Abc_NtkTestScorrGetName.exit, %Abc_NtkTestScorrGetName.exit17, %25
  %.0 = phi i32 [ 1, %25 ], [ 0, %Abc_NtkTestScorrGetName.exit17 ], [ 0, %Abc_NtkTestScorrGetName.exit ]
  ret i32 %.0
}